(dp1
Vsource_label
p2
Vhouse.gov
p3
sVtotal_plus
p4
I183
sVquestion_details
p5
NsVnumber
p6
I183
sVsession
p7
V2011
p8
sVresult
p9
VFailed
p10
sVid
p11
I1
sVcategory
p12
Vamendment
p13
sVrelated_amendment
p14
NsVsource
p15
Vhouse
p16
sVquestion
p17
VOn Agreeing to the Amendment: Amendment 3 to H R 861
p18
sVcategory_label
p19
VAmendment
p20
sVcongress
p21
I112
sVvote_type
p22
VOn the Amendment
p23
sVtotal_minus
p24
I244
sVlink
p25
Vhttps://www.govtrack.us/congress/votes/112-2011/h183
p26
sVcreated
p27
V2011-03-16T17:49:00
p28
sVrequired
p29
V1/2
p30
sVrelated_bill
p31
(dp32
Vsliplawpubpriv
p33
NsVnumber
p34
I861
sVdocs_house_gov_postdate
p35
NsVtitles
p36
(lp37
(lp38
Vshort
p39
aVintroduced
p40
aVNSP Termination Act
p41
aa(lp42
Vshort
p43
aVreported to house
p44
aVNSP Termination Act
p45
aa(lp46
Vshort
p47
aVpassed house
p48
aVNSP Termination Act
p49
aa(lp50
Vofficial
p51
aVintroduced
p52
aVTo rescind the third round of funding for the Neighborhood Stabilization Program and to terminate the program.
p53
aasVsponsor
p54
I400277
sVid
p55
I75622
sVthomas_link
p56
Vhttp://thomas.loc.gov/cgi-bin/bdquery/z?d112:hr861:
p57
sVcurrent_status_description
p58
VThis bill was introduced in a previous session of Congress and was passed by the House on March 16, 2011 but was never passed by the Senate.
p59
sVsenate_floor_schedule_postdate
p60
NsVsource
p61
Vthomas-congproj
p62
sVcurrent_status_label
p63
VPassed House
p64
sVsponsor_role
p65
I2285
sVis_alive
p66
I00
sVtitle_without_number
p67
VNSP Termination Act
p68
sVcongress
p69
I112
sVsource_link
p70
NsVmajor_actions
p71
(lp72
(lp73
Vdatetime.datetime(2011, 3, 1, 0, 0)
p74
aI2
aVReferred to the House Committee on Financial Services.
p75
aV<action datetime="2011-03-01" state="REFERRED">\u000a      <text>Referred to the House Committee on Financial Services.</text>\u000a    </action>\u000a    
p76
aa(lp77
Vdatetime.datetime(2011, 3, 9, 0, 0)
p78
aI3
aVOrdered to be Reported (Amended) by the Yeas and Nays: 31 - 24.
p79
aV<calendar datetime="2011-03-09" state="REPORTED">\u000a      <text>Ordered to be Reported (Amended) by the Yeas and Nays: 31 - 24.</text>\u000a    </calendar>\u000a    
p80
aa(lp81
Vdatetime.datetime(2011, 3, 16, 18, 44)
p82
aI4
aVOn passage Passed by recorded vote: 242 - 182 (Roll no. 188).
p83
aV<vote how="roll" type="vote" roll="188" datetime="2011-03-16T18:44:00-04:00" where="h" result="pass" state="PASS_OVER:HOUSE">\u000a      <text>On passage Passed by recorded vote: 242 - 182 (Roll no. 188).</text>\u000a    </vote>\u000a    
p84
aasVbill_type
p85
Vhouse_bill
p86
sVis_current
p87
I00
sVdisplay_number
p88
VH.R. 861
p89
sVbill_type_label
p90
VH.R.
p91
sVnoun
p92
Vbill
p93
sVbill_resolution_type
p94
Vbill
p95
sVcurrent_status_date
p96
V2011-03-16
p97
sVtitle
p98
VH.R. 861 (112th): NSP Termination Act
p99
sVcurrent_status
p100
Vpass_over_house
p101
sVintroduced_date
p102
V2011-03-01
p103
sVsliplawnum
p104
NsVlink
p105
Vhttps://www.govtrack.us/congress/bills/112/hr861
p106
ssVchamber
p107
Vhouse
p108
sVtotal_other
p109
I5
sVmissing_data
p110
I00
sVchamber_label
p111
VHouse
p112
sVoptions
p113
(lp114
(dp115
Vvote
p116
I1
sVvalue
p117
VNo
p118
sVid
p119
I426367
sVkey
p120
V-
sa(dp121
Vvote
p122
I1
sVvalue
p123
VPresent
p124
sVid
p125
I426368
sVkey
p126
VP
sa(dp127
Vvote
p128
I1
sVvalue
p129
VAye
p130
sVid
p131
I426366
sVkey
p132
V+
sa(dp133
Vvote
p134
I1
sVvalue
p135
VNot Voting
p136
sVid
p137
I426369
sVkey
p138
V0
sas.